; Function Attrs: mustprogress nofree nounwind willreturn uwtable
define dso_local noundef zeroext i1 @_ZN5clang7Builtin7Context12isPrintfLikeEjRjRb(ptr noundef nonnull readonly align 8 captures(none) dereferenceable(32) %0, i32 noundef %1, ptr noundef nonnull writeonly align 4 captures(none) dereferenceable(4) %2, ptr noundef nonnull writeonly align 1 captures(none) dereferenceable(1) %3) local_unnamed_addr #5 align 2 {
  %5 = icmp ult i32 %1, 1408
  %6 = zext i32 %1 to i64
  br i1 %5, label %7, label %9

7:                                                ; preds = %4
  %8 = getelementptr inbounds nuw [1408 x %"struct.clang::Builtin::Info"], ptr @_ZL11BuiltinInfo, i64 0, i64 %6
  br label %_ZNK5clang7Builtin7Context9getRecordEj.exit.i

9:                                                ; preds = %4
  %10 = getelementptr inbounds nuw i8, ptr %0, i64 8
  %11 = load i64, ptr %10, align 8
  %12 = add i64 %11, 1408
  %.not.i.i = icmp ugt i64 %12, %6
  br i1 %.not.i.i, label %21, label %13

13:                                               ; preds = %9
  %14 = getelementptr inbounds nuw i8, ptr %0, i64 16
  %15 = trunc i64 %11 to i32
  %16 = add i32 %1, -1408
  %17 = sub i32 %16, %15
  %18 = zext i32 %17 to i64
  %19 = load ptr, ptr %14, align 8
  %20 = getelementptr inbounds nuw %"struct.clang::Builtin::Info", ptr %19, i64 %18
  br label %_ZNK5clang7Builtin7Context9getRecordEj.exit.i

21:                                               ; preds = %9
  %22 = add i32 %1, -1408
  %23 = zext i32 %22 to i64
  %24 = load ptr, ptr %0, align 8
  %25 = getelementptr inbounds nuw %"struct.clang::Builtin::Info", ptr %24, i64 %23
  br label %_ZNK5clang7Builtin7Context9getRecordEj.exit.i

_ZNK5clang7Builtin7Context9getRecordEj.exit.i:    ; preds = %21, %13, %7
  %.0.i.i = phi ptr [ %8, %7 ], [ %20, %13 ], [ %25, %21 ]
  %26 = getelementptr inbounds nuw i8, ptr %.0.i.i, i64 24
  %27 = load ptr, ptr %26, align 8
  %28 = tail call noundef ptr @strpbrk(ptr noundef %27, ptr noundef nonnull @.str.28) #14
  %.not.i = icmp ne ptr %28, null
  br i1 %.not.i, label %29, label %_ZNK5clang7Builtin7Context6isLikeEjRjRbPKc.exit

29:                                               ; preds = %_ZNK5clang7Builtin7Context9getRecordEj.exit.i
  %30 = load i8, ptr %28, align 1
  %31 = icmp eq i8 %30, 80
  %32 = zext i1 %31 to i8
  store i8 %32, ptr %3, align 1
  %33 = getelementptr inbounds nuw i8, ptr %28, i64 2
  %34 = tail call i64 @strtol(ptr noundef nonnull captures(none) %33, ptr noundef null, i32 noundef 10) #13
  %35 = trunc i64 %34 to i32
  store i32 %35, ptr %2, align 4
  br label %_ZNK5clang7Builtin7Context6isLikeEjRjRbPKc.exit

_ZNK5clang7Builtin7Context6isLikeEjRjRbPKc.exit:  ; preds = %_ZNK5clang7Builtin7Context9getRecordEj.exit.i, %29
  ret i1 %.not.i
}